target datalayout = "e-m:e-p270:32:32-p271:32:32-p272:64:64-i64:64-i128:128-f80:128-n8:16:32:64-S128"
target triple = "x86_64-pc-linux-gnu"

%struct.SDLTest_TextWindow = type { %struct.SDL_FRect, i32, i32, ptr }
%struct.SDL_FRect = type { float, float, float, float }

@FONT_CHARACTER_SIZE = dso_local global i32 8, align 4

; Function Attrs: nounwind uwtable
define dso_local ptr @SDLTest_TextWindowCreate(float noundef %0, float noundef %1, float noundef %2, float noundef %3) #0 {
  %5 = alloca ptr, align 8
  %6 = alloca float, align 4
  %7 = alloca float, align 4
  %8 = alloca float, align 4
  %9 = alloca float, align 4
  %10 = alloca ptr, align 8
  %11 = alloca i32, align 4
  store float %0, ptr %6, align 4
  store float %1, ptr %7, align 4
  store float %2, ptr %8, align 4
  store float %3, ptr %9, align 4
  call void @llvm.lifetime.start.p0(i64 8, ptr %10) #7
  %12 = call noalias ptr @SDL_malloc(i64 noundef 32)
  store ptr %12, ptr %10, align 8
  %13 = load ptr, ptr %10, align 8
  %14 = icmp ne ptr %13, null
  br i1 %14, label %16, label %15

15:                                               ; preds = %4
  store ptr null, ptr %5, align 8
  store i32 1, ptr %11, align 4
  br label %59

16:                                               ; preds = %4
  %17 = load float, ptr %6, align 4
  %18 = load ptr, ptr %10, align 8
  %19 = getelementptr inbounds nuw %struct.SDLTest_TextWindow, ptr %18, i32 0, i32 0
  %20 = getelementptr inbounds nuw %struct.SDL_FRect, ptr %19, i32 0, i32 0
  store float %17, ptr %20, align 8
  %21 = load float, ptr %7, align 4
  %22 = load ptr, ptr %10, align 8
  %23 = getelementptr inbounds nuw %struct.SDLTest_TextWindow, ptr %22, i32 0, i32 0
  %24 = getelementptr inbounds nuw %struct.SDL_FRect, ptr %23, i32 0, i32 1
  store float %21, ptr %24, align 4
  %25 = load float, ptr %8, align 4
  %26 = load ptr, ptr %10, align 8
  %27 = getelementptr inbounds nuw %struct.SDLTest_TextWindow, ptr %26, i32 0, i32 0
  %28 = getelementptr inbounds nuw %struct.SDL_FRect, ptr %27, i32 0, i32 2
  store float %25, ptr %28, align 8
  %29 = load float, ptr %9, align 4
  %30 = load ptr, ptr %10, align 8
  %31 = getelementptr inbounds nuw %struct.SDLTest_TextWindow, ptr %30, i32 0, i32 0
  %32 = getelementptr inbounds nuw %struct.SDL_FRect, ptr %31, i32 0, i32 3
  store float %29, ptr %32, align 4
  %33 = load ptr, ptr %10, align 8
  %34 = getelementptr inbounds nuw %struct.SDLTest_TextWindow, ptr %33, i32 0, i32 1
  store i32 0, ptr %34, align 8
  %35 = load float, ptr %9, align 4
  %36 = load i32, ptr @FONT_CHARACTER_SIZE, align 4
  %37 = add nsw i32 %36, 2
  %38 = sitofp i32 %37 to float
  %39 = fdiv float %35, %38
  %40 = call float @SDL_ceilf(float noundef %39)
  %41 = fptosi float %40 to i32
  %42 = load ptr, ptr %10, align 8
  %43 = getelementptr inbounds nuw %struct.SDLTest_TextWindow, ptr %42, i32 0, i32 2
  store i32 %41, ptr %43, align 4
  %44 = load ptr, ptr %10, align 8
  %45 = getelementptr inbounds nuw %struct.SDLTest_TextWindow, ptr %44, i32 0, i32 2
  %46 = load i32, ptr %45, align 4
  %47 = sext i32 %46 to i64
  %48 = call noalias ptr @SDL_calloc(i64 noundef %47, i64 noundef 8) #8
  %49 = load ptr, ptr %10, align 8
  %50 = getelementptr inbounds nuw %struct.SDLTest_TextWindow, ptr %49, i32 0, i32 3
  store ptr %48, ptr %50, align 8
  %51 = load ptr, ptr %10, align 8
  %52 = getelementptr inbounds nuw %struct.SDLTest_TextWindow, ptr %51, i32 0, i32 3
  %53 = load ptr, ptr %52, align 8
  %54 = icmp ne ptr %53, null
  br i1 %54, label %57, label %55

55:                                               ; preds = %16
  %56 = load ptr, ptr %10, align 8
  call void @SDL_free(ptr noundef %56)
  store ptr null, ptr %5, align 8
  store i32 1, ptr %11, align 4
  br label %59

57:                                               ; preds = %16
  %58 = load ptr, ptr %10, align 8
  store ptr %58, ptr %5, align 8
  store i32 1, ptr %11, align 4
  br label %59

59:                                               ; preds = %57, %55, %15
  call void @llvm.lifetime.end.p0(i64 8, ptr %10) #7
  %60 = load ptr, ptr %5, align 8
  ret ptr %60
}