; Function Attrs: nounwind uwtable
define dso_local ptr @SDLTest_TextWindowCreate(float noundef %0, float noundef %1, float noundef %2, float noundef %3) local_unnamed_addr #0 {
  %5 = tail call noalias ptr @SDL_malloc(i64 noundef 32) #8
  %.not = icmp eq ptr %5, null
  br i1 %.not, label %22, label %6

6:                                                ; preds = %4
  store float %0, ptr %5, align 8
  %7 = getelementptr inbounds nuw i8, ptr %5, i64 4
  store float %1, ptr %7, align 4
  %8 = getelementptr inbounds nuw i8, ptr %5, i64 8
  store float %2, ptr %8, align 8
  %9 = getelementptr inbounds nuw i8, ptr %5, i64 12
  store float %3, ptr %9, align 4
  %10 = getelementptr inbounds nuw i8, ptr %5, i64 16
  store i32 0, ptr %10, align 8
  %11 = load i32, ptr @FONT_CHARACTER_SIZE, align 4
  %12 = add nsw i32 %11, 2
  %13 = sitofp i32 %12 to float
  %14 = fdiv float %3, %13
  %15 = tail call float @SDL_ceilf(float noundef %14) #8
  %16 = fptosi float %15 to i32
  %17 = getelementptr inbounds nuw i8, ptr %5, i64 20
  store i32 %16, ptr %17, align 4
  %18 = sext i32 %16 to i64
  %19 = tail call noalias ptr @SDL_calloc(i64 noundef %18, i64 noundef 8) #9
  %20 = getelementptr inbounds nuw i8, ptr %5, i64 24
  store ptr %19, ptr %20, align 8
  %.not19 = icmp eq ptr %19, null
  br i1 %.not19, label %21, label %22

21:                                               ; preds = %6
  tail call void @SDL_free(ptr noundef nonnull %5) #8
  br label %22

22:                                               ; preds = %6, %4, %21
  %.0 = phi ptr [ null, %21 ], [ null, %4 ], [ %5, %6 ]
  ret ptr %.0
}